target datalayout = "e-m:e-p270:32:32-p271:32:32-p272:64:64-i64:64-i128:128-f80:128-n8:16:32:64-S128"
target triple = "x86_64-pc-linux-gnu"

@meta_extra_lengths = internal global [64 x i8] c"\00\00\00\00\03\01\03\05\00\00\00\00\00\00\00\00\02\03\03\03\03\03\00\00\00\00\00\01\01\01\00\00\02\03\00\00\00\02\02\00\02\01\00\00\00\01\00\01\00\01\00\01\00\00\00\00\00\00\00\00\00\02\02\02", align 16

; Function Attrs: nounwind uwtable
define internal ptr @parsed_skip(ptr noundef %0, i32 noundef %1) #0 {
  %3 = alloca ptr, align 8
  %4 = alloca ptr, align 8
  %5 = alloca i32, align 4
  %6 = alloca i32, align 4
  %7 = alloca i32, align 4
  store ptr %0, ptr %4, align 8
  store i32 %1, ptr %5, align 4
  store i32 0, ptr %6, align 4
  br label %8

8:                                                ; preds = %89, %2
  %9 = load ptr, ptr %4, align 8
  %10 = load i32, ptr %9, align 4
  %11 = and i32 %10, -65536
  store i32 %11, ptr %7, align 4
  %12 = load i32, ptr %7, align 4
  switch i32 %12, label %13 [
    i32 -2147483648, label %18
    i32 -2147287040, label %19
    i32 -2145910784, label %28
    i32 -2144796672, label %39
    i32 -2144534528, label %39
    i32 -2144403456, label %39
    i32 -2144272384, label %39
    i32 -2144141312, label %39
    i32 -2146631680, label %46
    i32 -2147352576, label %52
    i32 -2146959360, label %52
    i32 -2146500608, label %52
    i32 -2146435072, label %52
    i32 -2146369536, label %52
    i32 -2146304000, label %52
    i32 -2146238464, label %52
    i32 -2146172928, label %52
    i32 -2146107392, label %52
    i32 -2145189888, label %52
    i32 -2145124352, label %52
    i32 -2144927744, label %52
    i32 -2145058816, label %52
    i32 -2144993280, label %52
    i32 -2144862208, label %52
    i32 -2145779712, label %52
    i32 -2145255424, label %52
    i32 -2147418112, label %55
    i32 -2145845248, label %64
  ]

13:                                               ; preds = %8
  %14 = load i32, ptr %7, align 4
  %15 = icmp ult i32 %14, -2147483648
  br i1 %15, label %16, label %17

16:                                               ; preds = %13
  br label %89

17:                                               ; preds = %13
  br label %72

18:                                               ; preds = %8
  store ptr null, ptr %3, align 8
  br label %92

19:                                               ; preds = %8
  %20 = load ptr, ptr %4, align 8
  %21 = load i32, ptr %20, align 4
  %22 = and i32 %21, 65535
  %23 = icmp uge i32 %22, 10
  br i1 %23, label %24, label %27

24:                                               ; preds = %19
  %25 = load ptr, ptr %4, align 8
  %26 = getelementptr inbounds i32, ptr %25, i64 2
  store ptr %26, ptr %4, align 8
  br label %27

27:                                               ; preds = %24, %19
  br label %72

28:                                               ; preds = %8
  %29 = load ptr, ptr %4, align 8
  %30 = load i32, ptr %29, align 4
  %31 = and i32 %30, 65535
  switch i32 %31, label %38 [
    i32 15, label %32
    i32 16, label %32
    i32 27, label %35
    i32 28, label %35
  ]

32:                                               ; preds = %28, %28
  %33 = load ptr, ptr %4, align 8
  %34 = getelementptr inbounds i32, ptr %33, i64 1
  store ptr %34, ptr %4, align 8
  br label %38

35:                                               ; preds = %28, %28
  %36 = load ptr, ptr %4, align 8
  %37 = getelementptr inbounds i32, ptr %36, i64 3
  store ptr %37, ptr %4, align 8
  br label %38

38:                                               ; preds = %35, %32, %28
  br label %72

39:                                               ; preds = %8, %8, %8, %8, %8
  %40 = load ptr, ptr %4, align 8
  %41 = getelementptr inbounds i32, ptr %40, i64 1
  %42 = load i32, ptr %41, align 4
  %43 = load ptr, ptr %4, align 8
  %44 = zext i32 %42 to i64
  %45 = getelementptr inbounds i32, ptr %43, i64 %44
  store ptr %45, ptr %4, align 8
  br label %72

46:                                               ; preds = %8
  %47 = load i32, ptr %5, align 4
  %48 = icmp eq i32 %47, 1
  br i1 %48, label %49, label %51

49:                                               ; preds = %46
  %50 = load ptr, ptr %4, align 8
  store ptr %50, ptr %3, align 8
  br label %92

51:                                               ; preds = %46
  br label %72

52:                                               ; preds = %8, %8, %8, %8, %8, %8, %8, %8, %8, %8, %8, %8, %8, %8, %8, %8, %8
  %53 = load i32, ptr %6, align 4
  %54 = add i32 %53, 1
  store i32 %54, ptr %6, align 4
  br label %72

55:                                               ; preds = %8
  %56 = load i32, ptr %6, align 4
  %57 = icmp eq i32 %56, 0
  br i1 %57, label %58, label %63

58:                                               ; preds = %55
  %59 = load i32, ptr %5, align 4
  %60 = icmp eq i32 %59, 0
  br i1 %60, label %61, label %63

61:                                               ; preds = %58
  %62 = load ptr, ptr %4, align 8
  store ptr %62, ptr %3, align 8
  br label %92

63:                                               ; preds = %58, %55
  br label %72

64:                                               ; preds = %8
  %65 = load i32, ptr %6, align 4
  %66 = icmp eq i32 %65, 0
  br i1 %66, label %67, label %69

67:                                               ; preds = %64
  %68 = load ptr, ptr %4, align 8
  store ptr %68, ptr %3, align 8
  br label %92

69:                                               ; preds = %64
  %70 = load i32, ptr %6, align 4
  %71 = add i32 %70, -1
  store i32 %71, ptr %6, align 4
  br label %72

72:                                               ; preds = %69, %63, %52, %51, %39, %38, %27, %17
  %73 = load i32, ptr %7, align 4
  %74 = lshr i32 %73, 16
  %75 = and i32 %74, 32767
  store i32 %75, ptr %7, align 4
  %76 = load i32, ptr %7, align 4
  %77 = zext i32 %76 to i64
  %78 = icmp uge i64 %77, 64
  br i1 %78, label %79, label %80

79:                                               ; preds = %72
  store ptr null, ptr %3, align 8
  br label %92

80:                                               ; preds = %72
  %81 = load i32, ptr %7, align 4
  %82 = zext i32 %81 to i64
  %83 = getelementptr inbounds [64 x i8], ptr @meta_extra_lengths, i64 0, i64 %82
  %84 = load i8, ptr %83, align 1
  %85 = zext i8 %84 to i32
  %86 = load ptr, ptr %4, align 8
  %87 = sext i32 %85 to i64
  %88 = getelementptr inbounds i32, ptr %86, i64 %87
  store ptr %88, ptr %4, align 8
  br label %89

89:                                               ; preds = %80, %16
  %90 = load ptr, ptr %4, align 8
  %91 = getelementptr inbounds i32, ptr %90, i32 1
  store ptr %91, ptr %4, align 8
  br label %8

92:                                               ; preds = %79, %67, %61, %49, %18
  %93 = load ptr, ptr %3, align 8
  ret ptr %93
}