; Function Attrs: nofree norecurse nosync nounwind memory(read, inaccessiblemem: none) uwtable
define internal fastcc noundef ptr @parsed_skip(ptr noundef readonly %0, i32 noundef %1) unnamed_addr #7 {
  %3 = icmp eq i32 %1, 1
  br i1 %3, label %.split.us, label %.split

.split.us:                                        ; preds = %2, %37
  %.026.us = phi ptr [ %38, %37 ], [ %0, %2 ]
  %.0.us = phi i32 [ %.2.us, %37 ], [ 0, %2 ]
  %4 = load i32, ptr %.026.us, align 4
  %5 = lshr i32 %4, 16
  %6 = trunc i32 %5 to i16
  %trunc.us = xor i16 %6, -32768
  switch i16 %trunc.us, label %26 [
    i16 0, label %.split32.us.loopexit
    i16 3, label %23
    i16 24, label %18
    i16 41, label %13
    i16 45, label %13
    i16 47, label %13
    i16 49, label %13
    i16 51, label %13
    i16 13, label %.split32.us
    i16 2, label %11
    i16 8, label %11
    i16 15, label %11
    i16 16, label %11
    i16 17, label %11
    i16 18, label %11
    i16 19, label %11
    i16 20, label %11
    i16 21, label %11
    i16 35, label %11
    i16 36, label %11
    i16 39, label %11
    i16 37, label %11
    i16 38, label %11
    i16 40, label %11
    i16 26, label %11
    i16 34, label %11
    i16 1, label %28
    i16 25, label %7
  ]

7:                                                ; preds = %.split.us
  %8 = icmp eq i32 %.0.us, 0
  br i1 %8, label %.split32.us, label %9

9:                                                ; preds = %7
  %10 = add i32 %.0.us, -1
  br label %28

11:                                               ; preds = %.split.us, %.split.us, %.split.us, %.split.us, %.split.us, %.split.us, %.split.us, %.split.us, %.split.us, %.split.us, %.split.us, %.split.us, %.split.us, %.split.us, %.split.us, %.split.us, %.split.us
  %12 = add i32 %.0.us, 1
  br label %28

13:                                               ; preds = %.split.us, %.split.us, %.split.us, %.split.us, %.split.us
  %14 = getelementptr inbounds i8, ptr %.026.us, i64 4
  %15 = load i32, ptr %14, align 4
  %16 = zext i32 %15 to i64
  %17 = getelementptr inbounds i32, ptr %.026.us, i64 %16
  br label %28

18:                                               ; preds = %.split.us
  %trunc30.us = trunc i32 %4 to i16
  switch i16 %trunc30.us, label %28 [
    i16 15, label %21
    i16 16, label %21
    i16 27, label %19
    i16 28, label %19
  ]

19:                                               ; preds = %18, %18
  %20 = getelementptr inbounds i8, ptr %.026.us, i64 12
  br label %28

21:                                               ; preds = %18, %18
  %22 = getelementptr inbounds i8, ptr %.026.us, i64 4
  br label %28

23:                                               ; preds = %.split.us
  %24 = and i32 %4, 65534
  %25 = icmp ugt i32 %24, 9
  %spec.select.idx.us = select i1 %25, i64 8, i64 0
  %spec.select.us = getelementptr inbounds i8, ptr %.026.us, i64 %spec.select.idx.us
  br label %28

26:                                               ; preds = %.split.us
  %27 = icmp sgt i32 %4, -1
  br i1 %27, label %37, label %28

28:                                               ; preds = %.split.us, %26, %23, %21, %19, %18, %13, %11, %9
  %.127.us = phi ptr [ %.026.us, %26 ], [ %.026.us, %9 ], [ %.026.us, %11 ], [ %17, %13 ], [ %.026.us, %18 ], [ %20, %19 ], [ %22, %21 ], [ %spec.select.us, %23 ], [ %.026.us, %.split.us ]
  %.1.us = phi i32 [ %.0.us, %26 ], [ %10, %9 ], [ %12, %11 ], [ %.0.us, %13 ], [ %.0.us, %18 ], [ %.0.us, %19 ], [ %.0.us, %21 ], [ %.0.us, %23 ], [ %.0.us, %.split.us ]
  %29 = and i32 %5, 32767
  %30 = icmp ugt i32 %29, 63
  br i1 %30, label %.split32.us, label %31

31:                                               ; preds = %28
  %32 = zext nneg i32 %29 to i64
  %33 = getelementptr inbounds [64 x i8], ptr @meta_extra_lengths, i64 0, i64 %32
  %34 = load i8, ptr %33, align 1
  %35 = zext i8 %34 to i64
  %36 = getelementptr inbounds i32, ptr %.127.us, i64 %35
  br label %37

37:                                               ; preds = %31, %26
  %.228.us = phi ptr [ %.026.us, %26 ], [ %36, %31 ]
  %.2.us = phi i32 [ %.0.us, %26 ], [ %.1.us, %31 ]
  %38 = getelementptr inbounds i8, ptr %.228.us, i64 4
  br label %.split.us

.split:                                           ; preds = %2, %74
  %.026 = phi ptr [ %75, %74 ], [ %0, %2 ]
  %.0 = phi i32 [ %.2, %74 ], [ 0, %2 ]
  %39 = load i32, ptr %.026, align 4
  %40 = lshr i32 %39, 16
  %41 = trunc i32 %40 to i16
  %trunc = xor i16 %41, -32768
  switch i16 %trunc, label %42 [
    i16 0, label %.split32.us
    i16 3, label %44
    i16 24, label %47
    i16 41, label %52
    i16 45, label %52
    i16 47, label %52
    i16 49, label %52
    i16 51, label %52
    i16 13, label %65
    i16 2, label %57
    i16 8, label %57
    i16 15, label %57
    i16 16, label %57
    i16 17, label %57
    i16 18, label %57
    i16 19, label %57
    i16 20, label %57
    i16 21, label %57
    i16 35, label %57
    i16 36, label %57
    i16 39, label %57
    i16 37, label %57
    i16 38, label %57
    i16 40, label %57
    i16 26, label %57
    i16 34, label %57
    i16 1, label %59
    i16 25, label %61
  ]

42:                                               ; preds = %.split
  %43 = icmp sgt i32 %39, -1
  br i1 %43, label %74, label %65

44:                                               ; preds = %.split
  %45 = and i32 %39, 65534
  %46 = icmp ugt i32 %45, 9
  %spec.select.idx = select i1 %46, i64 8, i64 0
  %spec.select = getelementptr inbounds i8, ptr %.026, i64 %spec.select.idx
  br label %65

47:                                               ; preds = %.split
  %trunc30 = trunc i32 %39 to i16
  switch i16 %trunc30, label %65 [
    i16 15, label %48
    i16 16, label %48
    i16 27, label %50
    i16 28, label %50
  ]

48:                                               ; preds = %47, %47
  %49 = getelementptr inbounds i8, ptr %.026, i64 4
  br label %65

50:                                               ; preds = %47, %47
  %51 = getelementptr inbounds i8, ptr %.026, i64 12
  br label %65

52:                                               ; preds = %.split, %.split, %.split, %.split, %.split
  %53 = getelementptr inbounds i8, ptr %.026, i64 4
  %54 = load i32, ptr %53, align 4
  %55 = zext i32 %54 to i64
  %56 = getelementptr inbounds i32, ptr %.026, i64 %55
  br label %65

57:                                               ; preds = %.split, %.split, %.split, %.split, %.split, %.split, %.split, %.split, %.split, %.split, %.split, %.split, %.split, %.split, %.split, %.split, %.split
  %58 = add i32 %.0, 1
  br label %65

59:                                               ; preds = %.split
  %60 = or i32 %.0, %1
  %or.cond = icmp eq i32 %60, 0
  br i1 %or.cond, label %.split32.us, label %65

61:                                               ; preds = %.split
  %62 = icmp eq i32 %.0, 0
  br i1 %62, label %.split32.us, label %63

63:                                               ; preds = %61
  %64 = add i32 %.0, -1
  br label %65

65:                                               ; preds = %.split, %44, %59, %47, %48, %50, %42, %63, %57, %52
  %.127 = phi ptr [ %.026, %42 ], [ %.026, %63 ], [ %.026, %59 ], [ %.026, %57 ], [ %56, %52 ], [ %.026, %47 ], [ %51, %50 ], [ %49, %48 ], [ %spec.select, %44 ], [ %.026, %.split ]
  %.1 = phi i32 [ %.0, %42 ], [ %64, %63 ], [ %.0, %59 ], [ %58, %57 ], [ %.0, %52 ], [ %.0, %47 ], [ %.0, %50 ], [ %.0, %48 ], [ %.0, %44 ], [ %.0, %.split ]
  %66 = and i32 %40, 32767
  %67 = icmp ugt i32 %66, 63
  br i1 %67, label %.split32.us, label %68

68:                                               ; preds = %65
  %69 = zext nneg i32 %66 to i64
  %70 = getelementptr inbounds [64 x i8], ptr @meta_extra_lengths, i64 0, i64 %69
  %71 = load i8, ptr %70, align 1
  %72 = zext i8 %71 to i64
  %73 = getelementptr inbounds i32, ptr %.127, i64 %72
  br label %74

74:                                               ; preds = %42, %68
  %.228 = phi ptr [ %.026, %42 ], [ %73, %68 ]
  %.2 = phi i32 [ %.0, %42 ], [ %.1, %68 ]
  %75 = getelementptr inbounds i8, ptr %.228, i64 4
  br label %.split

.split32.us.loopexit:                             ; preds = %.split.us
  br label %.split32.us

.split32.us:                                      ; preds = %.split, %59, %61, %65, %7, %28, %.split.us, %.split32.us.loopexit
  %.us-phi = phi ptr [ %.026.us, %.split.us ], [ null, %28 ], [ %.026.us, %7 ], [ null, %.split32.us.loopexit ], [ null, %.split ], [ %.026, %59 ], [ %.026, %61 ], [ null, %65 ]
  ret ptr %.us-phi
}